target datalayout = "e-m:e-p270:32:32-p271:32:32-p272:64:64-i64:64-i128:128-f80:128-n8:16:32:64-S128"
target triple = "x86_64-pc-linux-gnu"

%struct.SDL_HIDAPI_Device = type { ptr, ptr, ptr, ptr, i16, i16, i16, ptr, %struct.SDL_GUID, i32, i32, i32, i32, i16, i16, i8, i32, i32, i32, ptr, ptr, ptr, ptr, %struct.SDL_AtomicInt, i32, ptr, i8, i8, i8, ptr, i32, ptr, ptr }
%struct.SDL_GUID = type { [16 x i8] }
%struct.SDL_AtomicInt = type { i32 }
%struct.SDL_DriverGameCube_Context = type { i8, [4 x i32], [4 x i8], [24 x i8], [24 x i8], [4 x i8], [5 x i8], i8, i8 }

; Function Attrs: nounwind uwtable
define internal i32 @HIDAPI_DriverGameCube_GetDevicePlayerIndex(ptr noundef %0, i32 noundef %1) #0 {
  %3 = alloca i32, align 4
  %4 = alloca ptr, align 8
  %5 = alloca i32, align 4
  %6 = alloca ptr, align 8
  %7 = alloca i8, align 1
  %8 = alloca i32, align 4
  store ptr %0, ptr %4, align 8
  store i32 %1, ptr %5, align 4
  call void @llvm.lifetime.start.p0(i64 8, ptr %6) #5
  %9 = load ptr, ptr %4, align 8
  %10 = getelementptr inbounds nuw %struct.SDL_HIDAPI_Device, ptr %9, i32 0, i32 20
  %11 = load ptr, ptr %10, align 8
  store ptr %11, ptr %6, align 8
  call void @llvm.lifetime.start.p0(i64 1, ptr %7) #5
  store i8 0, ptr %7, align 1
  br label %12

12:                                               ; preds = %29, %2
  %13 = load i8, ptr %7, align 1
  %14 = zext i8 %13 to i32
  %15 = icmp slt i32 %14, 4
  br i1 %15, label %16, label %32

16:                                               ; preds = %12
  %17 = load i32, ptr %5, align 4
  %18 = load ptr, ptr %6, align 8
  %19 = getelementptr inbounds nuw %struct.SDL_DriverGameCube_Context, ptr %18, i32 0, i32 1
  %20 = load i8, ptr %7, align 1
  %21 = zext i8 %20 to i64
  %22 = getelementptr inbounds nuw [4 x i32], ptr %19, i64 0, i64 %21
  %23 = load i32, ptr %22, align 4
  %24 = icmp eq i32 %17, %23
  br i1 %24, label %25, label %28

25:                                               ; preds = %16
  %26 = load i8, ptr %7, align 1
  %27 = zext i8 %26 to i32
  store i32 %27, ptr %3, align 4
  store i32 1, ptr %8, align 4
  br label %33

28:                                               ; preds = %16
  br label %29

29:                                               ; preds = %28
  %30 = load i8, ptr %7, align 1
  %31 = add i8 %30, 1
  store i8 %31, ptr %7, align 1
  br label %12, !llvm.loop !9

32:                                               ; preds = %12
  store i32 -1, ptr %3, align 4
  store i32 1, ptr %8, align 4
  br label %33

33:                                               ; preds = %32, %25
  call void @llvm.lifetime.end.p0(i64 1, ptr %7) #5
  call void @llvm.lifetime.end.p0(i64 8, ptr %6) #5
  %34 = load i32, ptr %3, align 4
  ret i32 %34
}