; Function Attrs: nofree norecurse nosync nounwind memory(read, inaccessiblemem: none) uwtable
define internal range(i32 -1, 256) i32 @HIDAPI_DriverGameCube_GetDevicePlayerIndex(ptr noundef readonly captures(none) %0, i32 noundef %1) #2 {
  %3 = getelementptr inbounds nuw i8, ptr %0, i64 112
  %4 = load ptr, ptr %3, align 8
  %5 = getelementptr inbounds nuw i8, ptr %4, i64 4
  br label %6

6:                                                ; preds = %2, %10
  %indvars.iv = phi i64 [ 0, %2 ], [ %indvars.iv.next, %10 ]
  %7 = getelementptr inbounds nuw [4 x i32], ptr %5, i64 0, i64 %indvars.iv
  %8 = load i32, ptr %7, align 4
  %9 = icmp eq i32 %1, %8
  br i1 %9, label %.split.loop.exit9, label %10

10:                                               ; preds = %6
  %indvars.iv.next = add nuw nsw i64 %indvars.iv, 1
  %exitcond.not = icmp eq i64 %indvars.iv.next, 4
  br i1 %exitcond.not, label %.split.loop.exit, label %6, !llvm.loop !8

.split.loop.exit9:                                ; preds = %6
  %11 = trunc i64 %indvars.iv to i32
  %12 = and i32 %11, 255
  br label %.split.loop.exit

.split.loop.exit:                                 ; preds = %10, %.split.loop.exit9
  %.07 = phi i32 [ %12, %.split.loop.exit9 ], [ -1, %10 ]
  ret i32 %.07
}